; Function Attrs: mustprogress uwtable
define dso_local void @_ZN4absl13cord_internal11CordzHandleC2Eb(ptr noundef nonnull align 8 dereferenceable(32) %this, i1 noundef zeroext %is_snapshot) unnamed_addr #0 align 2 personality ptr @__gxx_personality_v0 {
entry:
  %frombool = zext i1 %is_snapshot to i8
  store ptr getelementptr inbounds ({ [4 x ptr] }, ptr @_ZTVN4absl13cord_internal11CordzHandleE, i64 0, i32 0, i64 2), ptr %this, align 8
  %is_snapshot_ = getelementptr inbounds i8, ptr %this, i64 8
  store i8 %frombool, ptr %is_snapshot_, align 8
  %dq_prev_ = getelementptr inbounds i8, ptr %this, i64 16
  tail call void @llvm.memset.p0.i64(ptr noundef nonnull align 8 dereferenceable(16) %dq_prev_, i8 0, i64 16, i1 false)
  %0 = load atomic i8, ptr @_ZGVZN4absl13cord_internal12_GLOBAL__N_111GlobalQueueEvE12global_queue acquire, align 8
  %guard.uninitialized.i = icmp eq i8 %0, 0
  br i1 %guard.uninitialized.i, label %init.check.i, label %_ZN4absl13cord_internal12_GLOBAL__N_111GlobalQueueEv.exit, !prof !5

init.check.i:                                     ; preds = %entry
  %1 = tail call i32 @__cxa_guard_acquire(ptr nonnull @_ZGVZN4absl13cord_internal12_GLOBAL__N_111GlobalQueueEvE12global_queue) #11
  %tobool.not.i = icmp eq i32 %1, 0
  br i1 %tobool.not.i, label %_ZN4absl13cord_internal12_GLOBAL__N_111GlobalQueueEv.exit, label %init.i

init.i:                                           ; preds = %init.check.i
  %call.i = invoke noalias noundef nonnull dereferenceable(16) ptr @_Znwm(i64 noundef 16) #12
          to label %invoke.cont2.i unwind label %lpad.i

invoke.cont2.i:                                   ; preds = %init.i
  tail call void @llvm.memset.p0.i64(ptr noundef nonnull align 8 dereferenceable(16) %call.i, i8 0, i64 16, i1 false)
  store ptr %call.i, ptr @_ZZN4absl13cord_internal12_GLOBAL__N_111GlobalQueueEvE12global_queue, align 8
  tail call void @__cxa_guard_release(ptr nonnull @_ZGVZN4absl13cord_internal12_GLOBAL__N_111GlobalQueueEvE12global_queue) #11
  br label %_ZN4absl13cord_internal12_GLOBAL__N_111GlobalQueueEv.exit

lpad.i:                                           ; preds = %init.i
  %2 = landingpad { ptr, i32 }
          cleanup
  tail call void @__cxa_guard_abort(ptr nonnull @_ZGVZN4absl13cord_internal12_GLOBAL__N_111GlobalQueueEvE12global_queue) #11
  resume { ptr, i32 } %2

_ZN4absl13cord_internal12_GLOBAL__N_111GlobalQueueEv.exit: ; preds = %entry, %init.check.i, %invoke.cont2.i
  %3 = load ptr, ptr @_ZZN4absl13cord_internal12_GLOBAL__N_111GlobalQueueEvE12global_queue, align 8
  br i1 %is_snapshot, label %if.then, label %if.end10

if.then:                                          ; preds = %_ZN4absl13cord_internal12_GLOBAL__N_111GlobalQueueEv.exit
  tail call void @_ZN4absl5Mutex4LockEv(ptr noundef nonnull align 8 dereferenceable(8) %3)
  %dq_tail4 = getelementptr inbounds i8, ptr %3, i64 8
  %4 = load atomic i64, ptr %dq_tail4 acquire, align 8
  %cmp.not = icmp eq i64 %4, 0
  br i1 %cmp.not, label %if.end, label %if.then6

if.then6:                                         ; preds = %if.then
  %atomic-temp.i.0.i = inttoptr i64 %4 to ptr
  store ptr %atomic-temp.i.0.i, ptr %dq_prev_, align 8
  %dq_next_8 = getelementptr inbounds i8, ptr %atomic-temp.i.0.i, i64 24
  store ptr %this, ptr %dq_next_8, align 8
  br label %if.end

if.end:                                           ; preds = %if.then6, %if.then
  %5 = ptrtoint ptr %this to i64
  store atomic i64 %5, ptr %dq_tail4 release, align 8
  invoke void @_ZN4absl5Mutex6UnlockEv(ptr noundef nonnull align 8 dereferenceable(8) %3)
          to label %if.end10 unwind label %terminate.lpad.i

terminate.lpad.i:                                 ; preds = %if.end
  %6 = landingpad { ptr, i32 }
          catch ptr null
  %7 = extractvalue { ptr, i32 } %6, 0
  tail call void @__clang_call_terminate(ptr %7) #13
  unreachable

if.end10:                                         ; preds = %if.end, %_ZN4absl13cord_internal12_GLOBAL__N_111GlobalQueueEv.exit
  ret void
}